target datalayout = "e-m:e-p270:32:32-p271:32:32-p272:64:64-i64:64-i128:128-f80:128-n8:16:32:64-S128"
target triple = "x86_64-pc-linux-gnu"

%struct.__jmp_buf_tag = type { [8 x i64], i32, %struct.__sigset_t }
%struct.__sigset_t = type { [16 x i64] }

@stderr = external global ptr, align 8
@.str.2 = private unnamed_addr constant [18 x i8] c"libpng error: %s\0A\00", align 1

; Function Attrs: nounwind uwtable
define internal void @error_function(ptr noundef %0, ptr noundef %1) #0 {
  %3 = alloca ptr, align 8
  %4 = alloca ptr, align 8
  store ptr %0, ptr %3, align 8, !tbaa !17
  store ptr %1, ptr %4, align 8, !tbaa !4
  %5 = load ptr, ptr %4, align 8, !tbaa !4
  %6 = icmp ne ptr %5, null
  br i1 %6, label %7, label %11

7:                                                ; preds = %2
  %8 = load ptr, ptr @stderr, align 8, !tbaa !29
  %9 = load ptr, ptr %4, align 8, !tbaa !4
  %10 = call i32 (ptr, ptr, ...) @fprintf(ptr noundef %8, ptr noundef @.str.2, ptr noundef %9) #11
  br label %11

11:                                               ; preds = %7, %2
  %12 = load ptr, ptr %3, align 8, !tbaa !17
  %13 = call ptr @png_set_longjmp_fn(ptr noundef %12, ptr noundef @longjmp, i64 noundef 200)
  %14 = getelementptr inbounds [1 x %struct.__jmp_buf_tag], ptr %13, i64 0, i64 0
  call void @longjmp(ptr noundef %14, i32 noundef 1) #14
  unreachable
}