; Function Attrs: noreturn nounwind uwtable
define internal void @error_function(ptr noundef %0, ptr noundef %1) #4 {
  %.not = icmp eq ptr %1, null
  br i1 %.not, label %6, label %3

3:                                                ; preds = %2
  %4 = load ptr, ptr @stderr, align 8, !tbaa !26
  %5 = tail call i32 (ptr, ptr, ...) @fprintf(ptr noundef %4, ptr noundef nonnull @.str.2, ptr noundef nonnull %1) #19
  br label %6

6:                                                ; preds = %3, %2
  %7 = tail call ptr @png_set_longjmp_fn(ptr noundef %0, ptr noundef nonnull @longjmp, i64 noundef 200) #15
  tail call void @longjmp(ptr noundef %7, i32 noundef 1) #20
  unreachable
}